target datalayout = "e-m:e-p270:32:32-p271:32:32-p272:64:64-i64:64-i128:128-f80:128-n8:16:32:64-S128"
target triple = "x86_64-pc-linux-gnu"

%struct._GdkEventButton = type { i32, ptr, i8, i32, double, double, ptr, i32, i32, ptr, double, double }

; Function Attrs: nounwind uwtable
define internal i32 @reset_widget_idm404(ptr noundef %0, ptr noundef %1, ptr noundef %2) #0 {
  %4 = alloca i32, align 4
  %5 = alloca ptr, align 8
  %6 = alloca ptr, align 8
  %7 = alloca ptr, align 8
  %8 = alloca float, align 4
  store ptr %0, ptr %5, align 8, !tbaa !6
  store ptr %1, ptr %6, align 8, !tbaa !64
  store ptr %2, ptr %7, align 8, !tbaa !6
  %9 = load ptr, ptr %6, align 8, !tbaa !64
  %10 = getelementptr inbounds nuw %struct._GdkEventButton, ptr %9, i32 0, i32 0
  %11 = load i32, ptr %10, align 8, !tbaa !66
  %12 = icmp eq i32 %11, 5
  br i1 %12, label %13, label %20

13:                                               ; preds = %3
  call void @llvm.lifetime.start.p0(i64 4, ptr %8) #10
  store float 1.000000e+00, ptr %8, align 4, !tbaa !58
  %14 = load ptr, ptr %7, align 8, !tbaa !6
  %15 = call i64 @gtk_spin_button_get_type() #11
  %16 = call ptr @g_type_check_instance_cast(ptr noundef %14, i64 noundef %15)
  %17 = load float, ptr %8, align 4, !tbaa !58
  %18 = fmul reassoc nsz arcp contract afn float 1.000000e+01, %17
  %19 = fpext reassoc nsz arcp contract afn float %18 to double
  call void @gtk_spin_button_set_value(ptr noundef %16, double noundef %19)
  store i32 1, ptr %4, align 4
  call void @llvm.lifetime.end.p0(i64 4, ptr %8) #10
  br label %21

20:                                               ; preds = %3
  store i32 0, ptr %4, align 4
  br label %21

21:                                               ; preds = %20, %13
  %22 = load i32, ptr %4, align 4
  ret i32 %22
}